#include <math.h>
#include <stdio.h>
#include <stdlib.h>
#include <string.h>

int main(){
int n;
scanf("%d",&n);
char a[100];
for(int i=0;i<n;i++){
scanf("%s",a);
int k=strlen(a);
if(a[k-2]=='e'&&a[k-1]=='r'){
a[k-2]='\0';
}
else if(a[k-2]=='l'&&a[k-1]=='y'){
a[k-2]='\0';
}
else if(a[k-3]=='i'&&a[k-2]=='n'&&a[k-1]=='g'){
a[k-3]='\0';
}
printf("%s\n",a);
}

}